Certificate:
    Data:
        Version: 3 (0x2)
        Serial Number: 13217415350890174777 (0xb76db13b969a9939)
    Signature Algorithm: sha256WithRSAEncryption
        Issuer: C=US, ST=Georgia, O=Gatech, OU=COC, CN=Txin
        Validity
            Not Before: Dec  1 01:13:25 2016 GMT
            Not After : Dec  1 01:13:25 2017 GMT
        Subject: C=US, ST=Georgia, L=Atlanta, O=Gatech, OU=COC, CN=t460
        Subject Public Key Info:
            Public Key Algorithm: rsaEncryption
                Public-Key: (2048 bit)
                Modulus:
                    00:ce:f4:ab:ee:48:35:3c:17:25:99:50:a5:6a:2c:
                    e9:a1:98:80:87:eb:25:15:e7:1a:0d:dc:ee:d6:0b:
                    18:77:cd:48:68:07:58:c5:99:da:02:1c:f4:b4:97:
                    6b:b6:8a:bb:ae:62:1a:df:7a:9c:26:26:a3:5b:f2:
                    3e:81:4f:67:8e:bb:31:84:18:eb:8a:32:15:c2:c1:
                    40:4a:00:04:96:d9:c8:67:cb:08:18:68:96:1b:90:
                    61:30:fb:c2:af:c0:02:4f:1e:5b:e9:53:eb:cd:d7:
                    53:50:1d:da:61:fa:f3:97:fb:e4:4d:e4:f9:61:02:
                    53:07:b6:70:28:66:91:5b:05:7d:22:12:98:31:24:
                    55:10:67:11:26:e0:8a:e4:dd:62:33:d1:8b:28:e9:
                    df:8d:b8:f5:e4:79:55:5f:c1:d1:d5:a7:c4:40:74:
                    c6:43:26:73:45:af:3e:64:aa:99:39:2d:4b:df:c4:
                    36:54:85:fe:92:59:4f:b1:83:cf:aa:9b:e8:b2:71:
                    7f:5c:ae:6f:7c:cc:95:5b:00:28:ae:1d:8f:dd:5b:
                    62:43:dc:a0:5e:4f:b5:74:77:4d:06:c7:ac:b3:93:
                    fc:ea:46:74:3b:8e:53:f2:10:27:d0:fd:93:ee:72:
                    8c:de:ac:8b:47:c6:71:2a:24:ee:44:de:4c:3d:f8:
                    66:79
                Exponent: 65537 (0x10001)
        X509v3 extensions:
            X509v3 Basic Constraints: 
                CA:FALSE
            Netscape Comment: 
                OpenSSL Generated Certificate
            X509v3 Subject Key Identifier: 
                2C:3D:7A:EB:40:AF:A5:1C:AB:69:B4:EA:9A:0A:A7:26:A8:04:57:2A
            X509v3 Authority Key Identifier: 
                keyid:B1:63:ED:B3:20:27:CF:01:11:D9:DB:C2:A5:5A:EE:36:A7:5D:55:9F

    Signature Algorithm: sha256WithRSAEncryption
         4f:f3:30:10:63:9b:43:81:fb:64:12:26:94:78:c2:c5:f3:b8:
         56:83:7b:f0:87:e8:aa:e5:df:ee:bc:f3:85:34:5d:b5:43:08:
         a1:90:62:6b:a8:c4:85:e2:ab:85:c6:05:ac:ae:82:b5:d1:8c:
         11:3c:7a:02:30:41:59:39:20:65:33:49:2f:dd:90:a7:2e:ec:
         f8:3c:d1:ad:c2:15:44:86:81:eb:5e:08:3f:1f:1c:fc:28:5d:
         cd:de:d2:58:64:2e:db:10:72:0c:1c:f5:47:b5:9e:76:ec:03:
         34:d2:38:91:1b:c2:4c:d1:8a:59:74:5e:03:8a:f8:77:cb:9e:
         85:10:30:54:79:d1:82:72:73:bc:dc:95:bf:8e:91:db:7e:7a:
         44:2f:ba:4d:f2:11:17:48:b9:3b:4b:4d:00:e7:7a:26:ee:a7:
         4e:4c:14:2a:f7:ad:ae:e8:ec:7b:d3:72:4c:5b:9b:62:70:7d:
         bc:e3:5d:b7:9a:14:bf:57:37:9e:43:67:c3:89:89:27:45:c4:
         92:3e:2d:99:f5:de:09:83:d9:7b:37:24:5e:c7:0b:1d:18:9f:
         e6:7a:c4:8f:40:81:d3:1e:ea:ec:0f:14:51:a6:b8:72:0e:24:
         86:07:eb:40:c5:1f:5c:73:5b:e9:8a:b7:3e:15:a3:dd:d8:63:
         54:ee:60:61
-----BEGIN CERTIFICATE-----
MIIDqjCCApKgAwIBAgIJALdtsTuWmpk5MA0GCSqGSIb3DQEBCwUAME0xCzAJBgNV
BAYTAlVTMRAwDgYDVQQIDAdHZW9yZ2lhMQ8wDQYDVQQKDAZHYXRlY2gxDDAKBgNV
BAsMA0NPQzENMAsGA1UEAwwEVHhpbjAeFw0xNjEyMDEwMTEzMjVaFw0xNzEyMDEw
MTEzMjVaMF8xCzAJBgNVBAYTAlVTMRAwDgYDVQQIDAdHZW9yZ2lhMRAwDgYDVQQH
DAdBdGxhbnRhMQ8wDQYDVQQKDAZHYXRlY2gxDDAKBgNVBAsMA0NPQzENMAsGA1UE
AwwEdDQ2MDCCASIwDQYJKoZIhvcNAQEBBQADggEPADCCAQoCggEBAM70q+5INTwX
JZlQpWos6aGYgIfrJRXnGg3c7tYLGHfNSGgHWMWZ2gIc9LSXa7aKu65iGt96nCYm
o1vyPoFPZ467MYQY64oyFcLBQEoABJbZyGfLCBholhuQYTD7wq/AAk8eW+lT683X
U1Ad2mH685f75E3k+WECUwe2cChmkVsFfSISmDEkVRBnESbgiuTdYjPRiyjp3424
9eR5VV/B0dWnxEB0xkMmc0WvPmSqmTktS9/ENlSF/pJZT7GDz6qb6LJxf1yub3zM
lVsAKK4dj91bYkPcoF5PtXR3TQbHrLOT/OpGdDuOU/IQJ9D9k+5yjN6si0fGcSok
7kTeTD34ZnkCAwEAAaN7MHkwCQYDVR0TBAIwADAsBglghkgBhvhCAQ0EHxYdT3Bl
blNTTCBHZW5lcmF0ZWQgQ2VydGlmaWNhdGUwHQYDVR0OBBYEFCw9eutAr6Ucq2m0
6poKpyaoBFcqMB8GA1UdIwQYMBaAFLFj7bMgJ88BEdnbwqVa7janXVWfMA0GCSqG
SIb3DQEBCwUAA4IBAQBP8zAQY5tDgftkEiaUeMLF87hWg3vwh+iq5d/uvPOFNF21
QwihkGJrqMSF4quFxgWsroK10YwRPHoCMEFZOSBlM0kv3ZCnLuz4PNGtwhVEhoHr
Xgg/Hxz8KF3N3tJYZC7bEHIMHPVHtZ527AM00jiRG8JM0YpZdF4Divh3y56FEDBU
edGCcnO83JW/jpHbfnpEL7pN8hEXSLk7S00A53om7qdOTBQq962u6Ox703JMW5ti
cH284123mhS/VzeeQ2fDiYknRcSSPi2Z9d4Jg9l7NyRexwsdGJ/mesSPQIHTHurs
DxRRprhyDiSGB+tAxR9cc1vpirc+FaPd2GNU7mBh
-----END CERTIFICATE-----
