Certificate:
    Data:
        Version: 3 (0x2)
        Serial Number: 13217415350890174776 (0xb76db13b969a9938)
    Signature Algorithm: sha256WithRSAEncryption
        Issuer: C=US, ST=Georgia, O=Gatech, OU=COC, CN=Txin
        Validity
            Not Before: Dec  1 01:11:56 2016 GMT
            Not After : Dec  1 01:11:56 2017 GMT
        Subject: C=US, ST=Georgia, L=Atlanta, O=Gatech, OU=COC, CN=localhost
        Subject Public Key Info:
            Public Key Algorithm: rsaEncryption
                Public-Key: (2048 bit)
                Modulus:
                    00:b8:bc:0c:a1:53:c7:d9:81:d6:bd:0b:ea:76:76:
                    0f:81:b3:2c:be:ea:29:15:11:ca:81:c2:ba:62:62:
                    72:49:21:57:69:c9:38:fd:5a:bd:1d:46:75:52:3f:
                    28:ce:02:dd:ad:1b:2d:95:d9:56:99:41:62:41:b2:
                    6d:a8:2f:86:71:d2:5c:4d:4d:5d:24:1d:65:d0:9f:
                    25:ae:9f:c8:12:8f:0a:85:ad:46:eb:0a:56:c5:6f:
                    a3:d3:6a:68:c2:20:73:cc:6d:6c:0b:22:6c:8c:0f:
                    9c:c1:26:a2:83:3c:20:12:88:24:bd:31:93:ea:09:
                    83:12:b8:aa:51:54:93:69:bd:19:c4:65:d0:04:2e:
                    8b:f3:ec:f4:72:52:aa:7b:bf:93:8b:78:47:b0:fd:
                    09:19:0d:48:dd:8b:1b:43:77:a8:b0:83:75:0d:d7:
                    9d:f3:40:63:78:c0:5d:e5:f7:56:d1:96:c1:11:ad:
                    f0:99:21:b5:4c:a7:5d:6b:39:9d:26:79:61:dd:ed:
                    50:dd:34:6a:f1:8f:36:2a:05:c3:94:0e:00:a2:b1:
                    4a:77:b6:ea:6b:bd:0f:d9:1d:25:c4:29:45:c9:94:
                    c1:3f:26:f4:a0:17:c3:e1:cf:21:21:67:a8:2b:d1:
                    b4:94:62:a2:f8:e8:20:33:fa:ec:77:08:ef:9b:30:
                    02:29
                Exponent: 65537 (0x10001)
        X509v3 extensions:
            X509v3 Basic Constraints: 
                CA:FALSE
            Netscape Comment: 
                OpenSSL Generated Certificate
            X509v3 Subject Key Identifier: 
                F7:F5:3A:21:5F:22:18:B6:3F:DF:EE:27:C3:3D:8C:87:1B:73:25:ED
            X509v3 Authority Key Identifier: 
                keyid:B1:63:ED:B3:20:27:CF:01:11:D9:DB:C2:A5:5A:EE:36:A7:5D:55:9F

    Signature Algorithm: sha256WithRSAEncryption
         8b:46:ea:d1:49:8b:7b:67:3f:6a:5a:bf:b4:7f:61:64:fe:92:
         bd:1a:78:c4:0f:4d:bc:51:61:73:a1:32:3c:e4:4b:ae:2c:d5:
         ab:48:93:e2:ef:c0:9d:a6:e1:f1:80:24:a8:8a:5d:f2:bc:ef:
         cd:4d:e5:ca:3c:5e:9f:96:fe:cb:bc:5c:bb:ec:6f:2c:9a:91:
         68:d3:32:cd:bf:c2:75:98:48:05:e9:0e:3d:86:ab:01:a3:6f:
         25:f6:67:b2:94:25:e8:40:53:06:d0:02:32:82:23:e1:a7:73:
         81:44:56:16:fe:99:ca:2d:a2:73:67:58:ea:1d:cf:61:a5:93:
         cc:b1:55:ad:6e:d7:60:70:b7:6e:b9:fe:44:d1:60:df:7d:18:
         36:d6:8b:45:0e:c7:1a:15:26:8a:4c:69:23:6a:3f:89:39:fc:
         0e:05:63:62:99:12:8e:0c:d6:ea:97:41:b6:5f:48:eb:d3:c1:
         2b:20:66:b2:0a:60:03:56:ca:b4:23:38:33:18:f2:71:b5:d5:
         cf:c8:41:25:c7:5b:b3:c1:fc:c5:3e:ae:78:d1:4f:34:26:89:
         75:08:1d:38:5f:fb:a3:2d:7e:25:e8:a5:0e:3b:70:f8:2c:c1:
         c5:1f:ec:18:c8:c6:87:31:5d:03:7c:bc:7e:d6:75:4d:c0:4b:
         24:b4:a6:f3
-----BEGIN CERTIFICATE-----
MIIDrzCCApegAwIBAgIJALdtsTuWmpk4MA0GCSqGSIb3DQEBCwUAME0xCzAJBgNV
BAYTAlVTMRAwDgYDVQQIDAdHZW9yZ2lhMQ8wDQYDVQQKDAZHYXRlY2gxDDAKBgNV
BAsMA0NPQzENMAsGA1UEAwwEVHhpbjAeFw0xNjEyMDEwMTExNTZaFw0xNzEyMDEw
MTExNTZaMGQxCzAJBgNVBAYTAlVTMRAwDgYDVQQIDAdHZW9yZ2lhMRAwDgYDVQQH
DAdBdGxhbnRhMQ8wDQYDVQQKDAZHYXRlY2gxDDAKBgNVBAsMA0NPQzESMBAGA1UE
AwwJbG9jYWxob3N0MIIBIjANBgkqhkiG9w0BAQEFAAOCAQ8AMIIBCgKCAQEAuLwM
oVPH2YHWvQvqdnYPgbMsvuopFRHKgcK6YmJySSFXack4/Vq9HUZ1Uj8ozgLdrRst
ldlWmUFiQbJtqC+GcdJcTU1dJB1l0J8lrp/IEo8Kha1G6wpWxW+j02powiBzzG1s
CyJsjA+cwSaigzwgEogkvTGT6gmDEriqUVSTab0ZxGXQBC6L8+z0clKqe7+Ti3hH
sP0JGQ1I3YsbQ3eosIN1Dded80BjeMBd5fdW0ZbBEa3wmSG1TKddazmdJnlh3e1Q
3TRq8Y82KgXDlA4AorFKd7bqa70P2R0lxClFyZTBPyb0oBfD4c8hIWeoK9G0lGKi
+OggM/rsdwjvmzACKQIDAQABo3sweTAJBgNVHRMEAjAAMCwGCWCGSAGG+EIBDQQf
Fh1PcGVuU1NMIEdlbmVyYXRlZCBDZXJ0aWZpY2F0ZTAdBgNVHQ4EFgQU9/U6IV8i
GLY/3+4nwz2MhxtzJe0wHwYDVR0jBBgwFoAUsWPtsyAnzwER2dvCpVruNqddVZ8w
DQYJKoZIhvcNAQELBQADggEBAItG6tFJi3tnP2pav7R/YWT+kr0aeMQPTbxRYXOh
MjzkS64s1atIk+LvwJ2m4fGAJKiKXfK8781N5co8Xp+W/su8XLvsbyyakWjTMs2/
wnWYSAXpDj2GqwGjbyX2Z7KUJehAUwbQAjKCI+Gnc4FEVhb+mcotonNnWOodz2Gl
k8yxVa1u12Bwt265/kTRYN99GDbWi0UOxxoVJopMaSNqP4k5/A4FY2KZEo4M1uqX
QbZfSOvTwSsgZrIKYANWyrQjODMY8nG11c/IQSXHW7PB/MU+rnjRTzQmiXUIHThf
+6MtfiXopQ47cPgswcUf7BjIxocxXQN8vH7WdU3ASyS0pvM=
-----END CERTIFICATE-----
