Certificate:
    Data:
        Version: 3 (0x2)
        Serial Number: 13217415350890174775 (0xb76db13b969a9937)
    Signature Algorithm: sha256WithRSAEncryption
        Issuer: C=US, ST=Georgia, O=Gatech, OU=COC, CN=Txin
        Validity
            Not Before: Dec  1 01:09:43 2016 GMT
            Not After : Dec  1 01:09:43 2019 GMT
        Subject: C=US, ST=Georgia, O=Gatech, OU=COC, CN=Txin
        Subject Public Key Info:
            Public Key Algorithm: rsaEncryption
                Public-Key: (2048 bit)
                Modulus:
                    00:ad:a6:c0:b4:6d:72:fd:07:4b:f0:b2:ee:d7:49:
                    2a:e5:9d:fb:6e:ec:7b:28:ff:8b:17:b8:ce:05:d9:
                    c9:5a:3d:fb:fc:9f:44:63:31:64:8b:7f:e6:43:8b:
                    1a:67:1d:d3:23:73:da:d2:cf:8b:d5:3b:a6:bb:94:
                    97:f2:66:e1:14:f6:2c:22:c0:01:cf:ad:83:cc:0b:
                    73:66:5f:a9:ae:fc:4e:a8:6d:f5:f8:ab:0f:99:96:
                    20:2e:d2:b1:c3:61:03:39:c5:60:39:3b:98:75:3f:
                    ea:5f:c3:4f:e5:39:a0:2d:b7:22:da:00:55:c8:1e:
                    25:d4:3d:b7:61:d3:0b:81:9b:23:88:c8:10:89:a7:
                    c7:c8:5b:e8:92:18:55:3f:fb:af:31:4b:22:dd:1b:
                    cf:3b:9a:ac:f1:f8:b7:7c:84:f3:2f:f6:22:c0:4a:
                    cb:c2:bc:b6:f6:69:56:74:45:f4:ad:54:25:b2:6d:
                    13:8d:cb:de:c9:fb:1b:7b:58:55:3a:2b:39:1d:a2:
                    39:49:e8:61:1e:11:13:62:b6:9a:21:e8:01:31:15:
                    19:cd:79:6b:ab:3f:86:39:9b:82:7b:c0:c6:73:5e:
                    6c:8f:a7:7b:de:3f:99:e6:85:d0:bb:50:d7:1d:ce:
                    0c:72:3f:1b:83:d4:05:4b:2a:7e:2d:67:cc:9f:f7:
                    7f:53
                Exponent: 65537 (0x10001)
        X509v3 extensions:
            X509v3 Subject Key Identifier: 
                B1:63:ED:B3:20:27:CF:01:11:D9:DB:C2:A5:5A:EE:36:A7:5D:55:9F
            X509v3 Authority Key Identifier: 
                keyid:B1:63:ED:B3:20:27:CF:01:11:D9:DB:C2:A5:5A:EE:36:A7:5D:55:9F

            X509v3 Basic Constraints: 
                CA:TRUE
    Signature Algorithm: sha256WithRSAEncryption
         9c:34:ef:da:44:5e:48:86:d4:49:27:49:a1:69:30:d8:9f:3d:
         a1:04:40:49:28:92:9b:f0:4d:f5:8e:27:74:be:cb:01:5d:42:
         e8:23:52:39:e4:1c:b1:ae:f8:d5:2d:73:4d:6d:3f:99:66:cf:
         60:ba:2c:ee:a4:d0:2d:09:57:90:04:3c:21:da:f2:b6:f1:2c:
         81:37:8d:3e:70:1f:51:18:de:55:58:aa:9b:78:5c:ce:8c:bb:
         38:c1:a6:37:d9:6c:9f:ac:82:26:61:aa:a0:ec:3a:95:2a:17:
         ba:e1:56:b9:a7:1b:48:5d:e1:8a:20:65:f2:6b:19:33:8d:0e:
         8f:a5:9e:1a:f1:8e:b6:3c:98:b0:2c:2b:d7:44:0f:b8:a5:a5:
         42:0f:09:b8:ed:a6:37:d3:37:c2:51:67:54:f1:cc:36:ac:bb:
         87:4b:a1:55:58:14:12:d6:00:37:5e:1d:6c:f1:3a:a0:4c:bf:
         08:bd:12:a4:dd:f5:32:5d:70:d0:68:22:7f:c1:1a:90:74:70:
         ec:f9:e8:e9:5e:e3:d0:34:1a:d5:87:00:bc:a9:d5:6d:be:e9:
         48:a9:04:f5:c7:df:ce:a0:10:eb:41:9a:20:6f:38:f6:63:1d:
         67:a9:70:e0:db:6c:6f:89:97:39:de:52:a9:34:7e:c0:8d:ad:
         0e:97:57:27
-----BEGIN CERTIFICATE-----
MIIDbTCCAlWgAwIBAgIJALdtsTuWmpk3MA0GCSqGSIb3DQEBCwUAME0xCzAJBgNV
BAYTAlVTMRAwDgYDVQQIDAdHZW9yZ2lhMQ8wDQYDVQQKDAZHYXRlY2gxDDAKBgNV
BAsMA0NPQzENMAsGA1UEAwwEVHhpbjAeFw0xNjEyMDEwMTA5NDNaFw0xOTEyMDEw
MTA5NDNaME0xCzAJBgNVBAYTAlVTMRAwDgYDVQQIDAdHZW9yZ2lhMQ8wDQYDVQQK
DAZHYXRlY2gxDDAKBgNVBAsMA0NPQzENMAsGA1UEAwwEVHhpbjCCASIwDQYJKoZI
hvcNAQEBBQADggEPADCCAQoCggEBAK2mwLRtcv0HS/Cy7tdJKuWd+27seyj/ixe4
zgXZyVo9+/yfRGMxZIt/5kOLGmcd0yNz2tLPi9U7pruUl/Jm4RT2LCLAAc+tg8wL
c2Zfqa78Tqht9firD5mWIC7SscNhAznFYDk7mHU/6l/DT+U5oC23ItoAVcgeJdQ9
t2HTC4GbI4jIEImnx8hb6JIYVT/7rzFLIt0bzzuarPH4t3yE8y/2IsBKy8K8tvZp
VnRF9K1UJbJtE43L3sn7G3tYVTorOR2iOUnoYR4RE2K2miHoATEVGc15a6s/hjmb
gnvAxnNebI+ne94/meaF0LtQ1x3ODHI/G4PUBUsqfi1nzJ/3f1MCAwEAAaNQME4w
HQYDVR0OBBYEFLFj7bMgJ88BEdnbwqVa7janXVWfMB8GA1UdIwQYMBaAFLFj7bMg
J88BEdnbwqVa7janXVWfMAwGA1UdEwQFMAMBAf8wDQYJKoZIhvcNAQELBQADggEB
AJw079pEXkiG1EknSaFpMNifPaEEQEkokpvwTfWOJ3S+ywFdQugjUjnkHLGu+NUt
c01tP5lmz2C6LO6k0C0JV5AEPCHa8rbxLIE3jT5wH1EY3lVYqpt4XM6MuzjBpjfZ
bJ+sgiZhqqDsOpUqF7rhVrmnG0hd4YogZfJrGTONDo+lnhrxjrY8mLAsK9dED7il
pUIPCbjtpjfTN8JRZ1TxzDasu4dLoVVYFBLWADdeHWzxOqBMvwi9EqTd9TJdcNBo
In/BGpB0cOz56Ole49A0GtWHALyp1W2+6UipBPXH386gEOtBmiBvOPZjHWepcODb
bG+JlzneUqk0fsCNrQ6XVyc=
-----END CERTIFICATE-----
